target datalayout = "e-m:e-p270:32:32-p271:32:32-p272:64:64-i64:64-i128:128-f80:128-n8:16:32:64-S128"
target triple = "x86_64-pc-linux-gnu"

%struct.H5T_t = type { %struct.H5O_shared_t, ptr, %struct.H5O_loc_t, %struct.H5G_name_t, ptr }
%struct.H5O_shared_t = type { i32, ptr, i32, %union.anon }
%union.anon = type { %struct.H5O_mesg_loc_t }
%struct.H5O_mesg_loc_t = type { i32, i64 }
%struct.H5O_loc_t = type { ptr, i64, i8 }
%struct.H5G_name_t = type { ptr, ptr, i32 }

@H5_libterm_g = external global i8, align 1
@.str = private unnamed_addr constant [103 x i8] c"generated/home/dtcxzyw/WorkSpace/Projects/compilers/llvm-opt-benchmark/bench/hdf5/hdf5/src/H5Tcommit.c\00", align 1
@H5E_FUNC_g = external global i64, align 8
@H5E_CANTINIT_g = external global i64, align 8
@H5T_init_g = external global i8, align 1
@.str.2 = private unnamed_addr constant [32 x i8] c"interface initialization failed\00", align 1
@H5E_DATATYPE_g = external global i64, align 8
@H5E_BADTYPE_g = external global i64, align 8
@.str.59 = private unnamed_addr constant [25 x i8] c"not a committed datatype\00", align 1
@__func__.H5T_invoke_vol_optional = private unnamed_addr constant [24 x i8] c"H5T_invoke_vol_optional\00", align 1
@H5E_CANTOPERATE_g = external global i64, align 8
@.str.83 = private unnamed_addr constant [45 x i8] c"unable to execute datatype optional callback\00", align 1

; Function Attrs: nounwind uwtable
define i32 @H5T_invoke_vol_optional(ptr noundef %0, ptr noundef %1, i64 noundef %2, ptr noundef %3, ptr noundef %4) #0 {
  %6 = alloca ptr, align 8
  %7 = alloca ptr, align 8
  %8 = alloca i64, align 8
  %9 = alloca ptr, align 8
  %10 = alloca ptr, align 8
  %11 = alloca i32, align 4
  %12 = alloca i8, align 1
  store ptr %0, ptr %6, align 8, !tbaa !21
  store ptr %1, ptr %7, align 8, !tbaa !74
  store i64 %2, ptr %8, align 8, !tbaa !3
  store ptr %3, ptr %9, align 8, !tbaa !16
  store ptr %4, ptr %10, align 8, !tbaa !17
  call void @llvm.lifetime.start.p0(i64 4, ptr %11) #7
  store i32 0, ptr %11, align 4, !tbaa !10
  call void @llvm.lifetime.start.p0(i64 1, ptr %12) #7
  store i8 0, ptr %12, align 1, !tbaa !12
  %13 = load i8, ptr @H5T_init_g, align 1, !tbaa !12, !range !14, !noundef !15
  %14 = trunc i8 %13 to i1
  br i1 %14, label %19, label %15

15:                                               ; preds = %5
  %16 = load i8, ptr @H5_libterm_g, align 1, !tbaa !12, !range !14, !noundef !15
  %17 = trunc i8 %16 to i1
  %18 = xor i1 %17, true
  br label %19

19:                                               ; preds = %15, %5
  %20 = phi i1 [ false, %5 ], [ %18, %15 ]
  %21 = xor i1 %20, true
  %22 = xor i1 %21, true
  %23 = zext i1 %22 to i32
  %24 = sext i32 %23 to i64
  %25 = call i64 @llvm.expect.i64(i64 %24, i64 0)
  %26 = icmp ne i64 %25, 0
  br i1 %26, label %27, label %50

27:                                               ; preds = %19
  store i8 1, ptr @H5T_init_g, align 1, !tbaa !12
  %28 = call i32 @H5T__init_package()
  %29 = icmp slt i32 %28, 0
  br i1 %29, label %30, label %49

30:                                               ; preds = %27
  store i8 0, ptr @H5T_init_g, align 1, !tbaa !12
  br label %31

31:                                               ; preds = %30
  br label %32

32:                                               ; preds = %31
  br label %33

33:                                               ; preds = %32
  %34 = load i64, ptr @H5E_FUNC_g, align 8, !tbaa !3
  %35 = load i64, ptr @H5E_CANTINIT_g, align 8, !tbaa !3
  %36 = call i32 (ptr, ptr, i32, i64, i64, ptr, ...) @H5E_printf_stack(ptr noundef @.str, ptr noundef @__func__.H5T_invoke_vol_optional, i32 noundef 1460, i64 noundef %34, i64 noundef %35, ptr noundef @.str.2)
  br label %37

37:                                               ; preds = %33
  br label %38

38:                                               ; preds = %37
  store i8 1, ptr %12, align 1, !tbaa !12
  %39 = load i8, ptr %12, align 1, !tbaa !12, !range !14, !noundef !15
  %40 = trunc i8 %39 to i1
  %41 = zext i1 %40 to i8
  store i8 %41, ptr %12, align 1, !tbaa !12
  br label %42

42:                                               ; preds = %38
  br label %43

43:                                               ; preds = %42
  br label %44

44:                                               ; preds = %43
  store i32 -1, ptr %11, align 4, !tbaa !10
  br label %124

45:                                               ; No predecessors!
  br label %46

46:                                               ; preds = %45
  br label %47

47:                                               ; preds = %46
  br label %48

48:                                               ; preds = %47
  br label %49

49:                                               ; preds = %48, %27
  br label %50

50:                                               ; preds = %49, %19
  %51 = load i8, ptr @H5T_init_g, align 1, !tbaa !12, !range !14, !noundef !15
  %52 = trunc i8 %51 to i1
  br i1 %52, label %57, label %53

53:                                               ; preds = %50
  %54 = load i8, ptr @H5_libterm_g, align 1, !tbaa !12, !range !14, !noundef !15
  %55 = trunc i8 %54 to i1
  %56 = xor i1 %55, true
  br label %57

57:                                               ; preds = %53, %50
  %58 = phi i1 [ true, %50 ], [ %56, %53 ]
  %59 = xor i1 %58, true
  %60 = xor i1 %59, true
  %61 = zext i1 %60 to i32
  %62 = sext i32 %61 to i64
  %63 = call i64 @llvm.expect.i64(i64 %62, i64 1)
  %64 = icmp ne i64 %63, 0
  br i1 %64, label %65, label %125

65:                                               ; preds = %57
  %66 = load ptr, ptr %6, align 8, !tbaa !21
  %67 = call i32 @H5T_is_named(ptr noundef %66)
  %68 = icmp ne i32 %67, 0
  br i1 %68, label %88, label %69

69:                                               ; preds = %65
  br label %70

70:                                               ; preds = %69
  br label %71

71:                                               ; preds = %70
  br label %72

72:                                               ; preds = %71
  %73 = load i64, ptr @H5E_DATATYPE_g, align 8, !tbaa !3
  %74 = load i64, ptr @H5E_BADTYPE_g, align 8, !tbaa !3
  %75 = call i32 (ptr, ptr, i32, i64, i64, ptr, ...) @H5E_printf_stack(ptr noundef @.str, ptr noundef @__func__.H5T_invoke_vol_optional, i32 noundef 1464, i64 noundef %73, i64 noundef %74, ptr noundef @.str.59)
  br label %76

76:                                               ; preds = %72
  br label %77

77:                                               ; preds = %76
  store i8 1, ptr %12, align 1, !tbaa !12
  %78 = load i8, ptr %12, align 1, !tbaa !12, !range !14, !noundef !15
  %79 = trunc i8 %78 to i1
  %80 = zext i1 %79 to i8
  store i8 %80, ptr %12, align 1, !tbaa !12
  br label %81

81:                                               ; preds = %77
  br label %82

82:                                               ; preds = %81
  br label %83

83:                                               ; preds = %82
  store i32 -1, ptr %11, align 4, !tbaa !10
  br label %124

84:                                               ; No predecessors!
  br label %85

85:                                               ; preds = %84
  br label %86

86:                                               ; preds = %85
  br label %87

87:                                               ; preds = %86
  br label %88

88:                                               ; preds = %87, %65
  %89 = load ptr, ptr %6, align 8, !tbaa !21
  %90 = getelementptr inbounds nuw %struct.H5T_t, ptr %89, i32 0, i32 4
  %91 = load ptr, ptr %90, align 8, !tbaa !24
  %92 = icmp ne ptr %91, null
  br i1 %92, label %93, label %123

93:                                               ; preds = %88
  %94 = load ptr, ptr %6, align 8, !tbaa !21
  %95 = getelementptr inbounds nuw %struct.H5T_t, ptr %94, i32 0, i32 4
  %96 = load ptr, ptr %95, align 8, !tbaa !24
  %97 = load ptr, ptr %7, align 8, !tbaa !74
  %98 = load i64, ptr %8, align 8, !tbaa !3
  %99 = load ptr, ptr %9, align 8, !tbaa !16
  %100 = load ptr, ptr %10, align 8, !tbaa !17
  %101 = call i32 @H5VL_datatype_optional_op(ptr noundef %96, ptr noundef %97, i64 noundef %98, ptr noundef %99, ptr noundef %100)
  %102 = icmp slt i32 %101, 0
  br i1 %102, label %103, label %122

103:                                              ; preds = %93
  br label %104

104:                                              ; preds = %103
  br label %105

105:                                              ; preds = %104
  br label %106

106:                                              ; preds = %105
  %107 = load i64, ptr @H5E_DATATYPE_g, align 8, !tbaa !3
  %108 = load i64, ptr @H5E_CANTOPERATE_g, align 8, !tbaa !3
  %109 = call i32 (ptr, ptr, i32, i64, i64, ptr, ...) @H5E_printf_stack(ptr noundef @.str, ptr noundef @__func__.H5T_invoke_vol_optional, i32 noundef 1469, i64 noundef %107, i64 noundef %108, ptr noundef @.str.83)
  br label %110

110:                                              ; preds = %106
  br label %111

111:                                              ; preds = %110
  store i8 1, ptr %12, align 1, !tbaa !12
  %112 = load i8, ptr %12, align 1, !tbaa !12, !range !14, !noundef !15
  %113 = trunc i8 %112 to i1
  %114 = zext i1 %113 to i8
  store i8 %114, ptr %12, align 1, !tbaa !12
  br label %115

115:                                              ; preds = %111
  br label %116

116:                                              ; preds = %115
  br label %117

117:                                              ; preds = %116
  store i32 -1, ptr %11, align 4, !tbaa !10
  br label %124

118:                                              ; No predecessors!
  br label %119

119:                                              ; preds = %118
  br label %120

120:                                              ; preds = %119
  br label %121

121:                                              ; preds = %120
  br label %122

122:                                              ; preds = %121, %93
  br label %123

123:                                              ; preds = %122, %88
  br label %124

124:                                              ; preds = %123, %117, %83, %44
  br label %125

125:                                              ; preds = %124, %57
  %126 = load i32, ptr %11, align 4, !tbaa !10
  call void @llvm.lifetime.end.p0(i64 1, ptr %12) #7
  call void @llvm.lifetime.end.p0(i64 4, ptr %11) #7
  ret i32 %126
}