; Function Attrs: nounwind uwtable
define range(i32 -1, 1) i32 @H5T_invoke_vol_optional(ptr noundef %0, ptr noundef %1, i64 noundef %2, ptr noundef %3, ptr noundef %4) local_unnamed_addr #0 {
  %6 = load i8, ptr @H5T_init_g, align 1, !tbaa !3, !range !7, !noundef !8
  %7 = trunc nuw i8 %6 to i1
  %8 = load i8, ptr @H5_libterm_g, align 1, !range !7
  %9 = trunc nuw i8 %8 to i1
  %10 = select i1 %7, i1 true, i1 %9
  br i1 %10, label %18, label %11, !prof !9

11:                                               ; preds = %5
  store i8 1, ptr @H5T_init_g, align 1, !tbaa !3
  %12 = tail call i32 @H5T__init_package() #9
  %13 = icmp slt i32 %12, 0
  br i1 %13, label %14, label %._crit_edge

._crit_edge:                                      ; preds = %11
  %.pre = load i8, ptr @H5T_init_g, align 1, !tbaa !3, !range !7
  %.pre12 = load i8, ptr @H5_libterm_g, align 1, !range !7
  %.pre13 = trunc nuw i8 %.pre to i1
  %.pre14 = trunc nuw i8 %.pre12 to i1
  br label %18

14:                                               ; preds = %11
  store i8 0, ptr @H5T_init_g, align 1, !tbaa !3
  %15 = load i64, ptr @H5E_FUNC_g, align 8, !tbaa !11
  %16 = load i64, ptr @H5E_CANTINIT_g, align 8, !tbaa !11
  %17 = tail call i32 (ptr, ptr, i32, i64, i64, ptr, ...) @H5E_printf_stack(ptr noundef nonnull @.str, ptr noundef nonnull @__func__.H5T_invoke_vol_optional, i32 noundef 1460, i64 noundef %15, i64 noundef %16, ptr noundef nonnull @.str.2) #9
  br label %37

18:                                               ; preds = %._crit_edge, %5
  %.pre-phi15 = phi i1 [ %.pre14, %._crit_edge ], [ %9, %5 ]
  %.pre-phi = phi i1 [ %.pre13, %._crit_edge ], [ %7, %5 ]
  %19 = xor i1 %.pre-phi15, true
  %20 = select i1 %.pre-phi, i1 true, i1 %19
  br i1 %20, label %21, label %37, !prof !9

21:                                               ; preds = %18
  %22 = tail call i32 @H5T_is_named(ptr noundef %0) #9
  %.not = icmp eq i32 %22, 0
  br i1 %.not, label %23, label %27

23:                                               ; preds = %21
  %24 = load i64, ptr @H5E_DATATYPE_g, align 8, !tbaa !11
  %25 = load i64, ptr @H5E_BADTYPE_g, align 8, !tbaa !11
  %26 = tail call i32 (ptr, ptr, i32, i64, i64, ptr, ...) @H5E_printf_stack(ptr noundef nonnull @.str, ptr noundef nonnull @__func__.H5T_invoke_vol_optional, i32 noundef 1464, i64 noundef %24, i64 noundef %25, ptr noundef nonnull @.str.59) #9
  br label %37

27:                                               ; preds = %21
  %28 = getelementptr inbounds nuw i8, ptr %0, i64 96
  %29 = load ptr, ptr %28, align 8, !tbaa !19
  %.not11 = icmp eq ptr %29, null
  br i1 %.not11, label %37, label %30

30:                                               ; preds = %27
  %31 = tail call i32 @H5VL_datatype_optional_op(ptr noundef nonnull %29, ptr noundef %1, i64 noundef %2, ptr noundef %3, ptr noundef %4) #9
  %32 = icmp slt i32 %31, 0
  br i1 %32, label %33, label %37

33:                                               ; preds = %30
  %34 = load i64, ptr @H5E_DATATYPE_g, align 8, !tbaa !11
  %35 = load i64, ptr @H5E_CANTOPERATE_g, align 8, !tbaa !11
  %36 = tail call i32 (ptr, ptr, i32, i64, i64, ptr, ...) @H5E_printf_stack(ptr noundef nonnull @.str, ptr noundef nonnull @__func__.H5T_invoke_vol_optional, i32 noundef 1469, i64 noundef %34, i64 noundef %35, ptr noundef nonnull @.str.83) #9
  br label %37

37:                                               ; preds = %14, %23, %33, %30, %27, %18
  %.0 = phi i32 [ -1, %14 ], [ -1, %33 ], [ 0, %30 ], [ 0, %27 ], [ -1, %23 ], [ 0, %18 ]
  ret i32 %.0
}